c__builtin__
set
p0
((lp1
(I13
I22
tp2
a(I35
I22
tp3
a(I25
I31
tp4
a(I24
I17
tp5
a(I21
I28
tp6
a(I20
I20
tp7
a(I25
I15
tp8
a(I26
I28
tp9
a(I25
I12
tp10
a(I16
I28
tp11
a(I22
I19
tp12
a(I13
I17
tp13
a(I27
I17
tp14
a(I26
I11
tp15
a(I13
I30
tp16
a(I33
I30
tp17
a(I16
I19
tp18
a(I13
I32
tp19
a(I23
I19
tp20
a(I35
I15
tp21
a(I34
I29
tp22
a(I26
I32
tp23
a(I30
I23
tp24
a(I19
I14
tp25
a(I35
I21
tp26
a(I15
I11
tp27
a(I31
I22
tp28
a(I32
I16
tp29
a(I18
I23
tp30
a(I26
I17
tp31
a(I17
I23
tp32
a(I22
I28
tp33
a(I13
I20
tp34
a(I18
I20
tp35
a(I13
I29
tp36
a(I29
I17
tp37
a(I16
I15
tp38
a(I32
I15
tp39
a(I30
I14
tp40
a(I13
I14
tp41
a(I34
I30
tp42
a(I31
I15
tp43
a(I30
I29
tp44
a(I20
I32
tp45
a(I19
I24
tp46
a(I35
I31
tp47
a(I15
I29
tp48
a(I31
I24
tp49
a(I17
I20
tp50
a(I28
I32
tp51
a(I35
I16
tp52
a(I32
I28
tp53
a(I24
I11
tp54
a(I21
I18
tp55
a(I20
I14
tp56
a(I32
I22
tp57
a(I21
I15
tp58
a(I28
I17
tp59
a(I18
I25
tp60
a(I23
I28
tp61
a(I27
I32
tp62
a(I16
I18
tp63
a(I30
I11
tp64
a(I28
I15
tp65
a(I30
I30
tp66
a(I29
I14
tp67
a(I35
I26
tp68
a(I21
I19
tp69
a(I24
I21
tp70
a(I22
I32
tp71
a(I21
I24
tp72
a(I26
I24
tp73
a(I25
I16
tp74
a(I16
I16
tp75
a(I22
I23
tp76
a(I13
I13
tp77
a(I31
I11
tp78
a(I26
I23
tp79
a(I23
I22
tp80
a(I13
I26
tp81
a(I28
I22
tp82
a(I18
I26
tp83
a(I25
I23
tp84
a(I29
I23
tp85
a(I27
I11
tp86
a(I35
I25
tp87
a(I25
I30
tp88
a(I24
I18
tp89
a(I17
I21
tp90
a(I26
I29
tp91
a(I17
I11
tp92
a(I13
I16
tp93
a(I27
I16
tp94
a(I34
I32
tp95
a(I17
I24
tp96
a(I16
I32
tp97
a(I13
I23
tp98
a(I30
I13
tp99
a(I33
I29
tp100
a(I17
I15
tp101
a(I33
I16
tp102
a(I35
I14
tp103
a(I14
I28
tp104
a(I19
I28
tp105
a(I24
I28
tp106
a(I35
I20
tp107
a(I21
I20
tp108
a(I31
I17
tp109
a(I21
I30
tp110
a(I17
I22
tp111
a(I22
I29
tp112
a(I13
I19
tp113
a(I34
I16
tp114
a(I29
I16
tp115
a(I18
I12
tp116
a(I18
I32
tp117
a(I30
I15
tp118
a(I29
I11
tp119
a(I28
I11
tp120
a(I35
I13
tp121
a(I34
I31
tp122
a(I31
I14
tp123
a(I35
I30
tp124
a(I15
I28
tp125
a(I31
I27
tp126
a(I30
I17
tp127
a(I20
I28
tp128
a(I35
I19
tp129
a(I25
I20
tp130
a(I16
I20
tp131
a(I21
I17
tp132
a(I31
I32
tp133
a(I18
I11
tp134
a(I23
I18
tp135
a(I22
I30
tp136
a(I21
I14
tp137
a(I33
I22
tp138
a(I29
I32
tp139
a(I28
I29
tp140
a(I27
I15
tp141
a(I21
I11
tp142
a(I15
I32
tp143
a(I25
I32
tp144
a(I31
I13
tp145
a(I30
I31
tp146
a(I29
I13
tp147
a(I35
I29
tp148
a(I34
I15
tp149
a(I24
I22
tp150
a(I19
I11
tp151
a(I26
I25
tp152
a(I30
I32
tp153
a(I16
I17
tp154
a(I22
I20
tp155
a(I13
I12
tp156
a(I27
I20
tp157
a(I26
I20
tp158
a(I17
I28
tp159
a(I23
I17
tp160
a(I13
I25
tp161
a(I28
I23
tp162
a(I18
I27
tp163
a(I33
I17
tp164
a(I29
I22
tp165
a(I18
I15
tp166
a(I21
I31
tp167
a(I32
I32
tp168
a(I19
I32
tp169
a(I33
I11
tp170
a(I35
I24
tp171
a(I25
I29
tp172
a(I16
I11
tp173
a(I26
I26
tp174
a(I22
I17
tp175
a(I21
I23
tp176
a(I32
I17
tp177
a(I13
I28
tp178
a(I28
I20
tp179
a(I25
I14
tp180
a(I18
I28
tp181
a(I33
I28
tp182
a(I22
I11
tp183
a(I34
I22
tp184
a(I14
I29
tp185
a(I29
I29
tp186
a(I15
I24
tp187
a(I21
I32
tp188
a(I20
I24
tp189
a(I35
I23
tp190
a(I31
I16
tp191
a(I21
I29
tp192
a(I20
I11
tp193
a(I13
I15
tp194
a(I25
I13
tp195
a(I22
I18
tp196
a(I13
I18
tp197
a(I13
I31
tp198
a(I34
I17
tp199
a(I33
I31
tp200
a(I30
I12
tp201
a(I35
I12
tp202
a(I34
I28
tp203
a(I34
I11
tp204
a(I24
I19
tp205
a(I31
I26
tp206
a(I30
I22
tp207
a(I35
I18
tp208
a(I23
I32
tp209
a(I31
I23
tp210
a(I21
I16
tp211
a(I26
I16
tp212
a(I33
I32
tp213
a(I16
I24
tp214
a(I22
I31
tp215
a(I13
I21
tp216
a(I27
I29
tp217
a(I26
I15
tp218
a(I23
I21
tp219
a(I23
I11
tp220
a(I35
I11
tp221
a(I33
I15
tp222
a(I31
I12
tp223
a(I30
I28
tp224
a(I29
I12
tp225
a(I35
I28
tp226
a(I24
I23
tp227
a(I31
I25
tp228
a(I35
I17
tp229
a(I15
I15
tp230
a(I22
I21
tp231
a(I13
I11
tp232
a(I27
I23
tp233
a(I18
I13
tp234
a(I25
I11
tp235
a(I13
I24
tp236
a(I28
I16
tp237
a(I35
I32
tp238
a(I18
I24
tp239
a(I17
I32
tp240
a(I14
I24
tp241
a(I32
I11
tp242
a(I31
I28
tp243
a(I29
I15
tp244
a(I19
I20
tp245
a(I35
I27
tp246
a(I25
I28
tp247
a(I24
I20
tp248
a(I14
I11
tp249
a(I23
I20
tp250
a(I26
I27
tp251
a(I25
I17
tp252
a(I21
I21
tp253
a(I22
I22
tp254
a(I21
I22
tp255
a(I18
I14
tp256
a(I23
I23
tp257
a(I13
I27
tp258
a(I28
I21
tp259
a(I14
I32
tp260
a(I14
I15
tp261
a(I24
I32
tp262
a(I30
I16
tp263
atp264
Rp265
.