c__builtin__
set
p0
((lp1
(I15
I27
tp2
a(I21
I28
tp3
a(I26
I28
tp4
a(I37
I20
tp5
a(I34
I38
tp6
a(I37
I35
tp7
a(I34
I29
tp8
a(I14
I31
tp9
a(I24
I27
tp10
a(I25
I26
tp11
a(I16
I22
tp12
a(I33
I39
tp13
a(I22
I28
tp14
a(I33
I20
tp15
a(I32
I28
tp16
a(I14
I24
tp17
a(I27
I39
tp18
a(I24
I24
tp19
a(I36
I31
tp20
a(I32
I22
tp21
a(I32
I25
tp22
a(I36
I36
tp23
a(I34
I20
tp24
a(I31
I31
tp25
a(I36
I29
tp26
a(I22
I23
tp27
a(I29
I40
tp28
a(I14
I22
tp29
a(I27
I33
tp30
a(I26
I29
tp31
a(I38
I21
tp32
a(I38
I24
tp33
a(I37
I34
tp34
a(I14
I28
tp35
a(I19
I28
tp36
a(I27
I30
tp37
a(I35
I20
tp38
a(I32
I39
tp39
a(I29
I33
tp40
a(I17
I22
tp41
a(I38
I22
tp42
a(I27
I31
tp43
a(I17
I27
tp44
a(I23
I24
tp45
a(I14
I25
tp46
a(I24
I25
tp47
a(I31
I27
tp48
a(I20
I28
tp49
a(I28
I33
tp50
a(I36
I20
tp51
a(I32
I23
tp52
a(I31
I33
tp53
a(I18
I22
tp54
a(I32
I26
tp55
a(I36
I37
tp56
a(I14
I26
tp57
a(I19
I22
tp58
a(I35
I29
tp59
a(I31
I40
tp60
a(I31
I30
tp61
a(I36
I30
tp62
a(I30
I33
tp63
a(I37
I31
tp64
a(I22
I27
tp65
a(I18
I27
tp66
a(I14
I23
tp67
a(I27
I32
tp68
a(I15
I22
tp69
a(I31
I29
tp70
a(I20
I22
tp71
a(I18
I28
tp72
a(I33
I28
tp73
a(I37
I33
tp74
a(I14
I29
tp75
a(I30
I40
tp76
a(I28
I40
tp77
a(I16
I27
tp78
a(I38
I23
tp79
a(I37
I21
tp80
a(I35
I38
tp81
a(I23
I27
tp82
a(I37
I36
tp83
a(I34
I28
tp84
a(I14
I30
tp85
a(I24
I26
tp86
a(I25
I27
tp87
a(I32
I40
tp88
a(I31
I32
tp89
a(I35
I37
tp90
a(I34
I39
tp91
a(I33
I21
tp92
a(I32
I27
tp93
a(I14
I27
tp94
a(I28
I39
tp95
a(I27
I29
tp96
a(I32
I21
tp97
a(I32
I24
tp98
a(I25
I28
tp99
a(I31
I28
tp100
a(I22
I22
tp101
a(I21
I22
tp102
a(I23
I23
tp103
a(I14
I32
tp104
a(I37
I32
tp105
atp106
Rp107
.