c__builtin__
set
p0
((lp1
(I25
I27
tp2
a(I16
I21
tp3
a(I16
I24
tp4
a(I25
I23
tp5
a(I19
I18
tp6
a(I24
I18
tp7
a(I21
I27
tp8
a(I22
I27
tp9
a(I24
I27
tp10
a(I25
I19
tp11
a(I18
I27
tp12
a(I25
I26
tp13
a(I16
I22
tp14
a(I16
I25
tp15
a(I20
I18
tp16
a(I25
I22
tp17
a(I16
I18
tp18
a(I20
I27
tp19
a(I25
I18
tp20
a(I18
I18
tp21
a(I25
I25
tp22
a(I16
I23
tp23
a(I16
I26
tp24
a(I25
I21
tp25
a(I16
I19
tp26
a(I17
I27
tp27
a(I21
I18
tp28
a(I17
I18
tp29
a(I25
I24
tp30
a(I19
I27
tp31
a(I16
I27
tp32
a(I22
I18
tp33
a(I25
I20
tp34
a(I16
I20
tp35
a(I23
I27
tp36
a(I23
I18
tp37
atp38
Rp39
.