c__builtin__
set
p0
((lp1
(I34
I7
tp2
a(I7
I3
tp3
a(I31
I6
tp4
a(I17
I11
tp5
a(I37
I10
tp6
a(I17
I7
tp7
a(I14
I4
tp8
a(I39
I4
tp9
a(I46
I12
tp10
a(I20
I7
tp11
a(I44
I4
tp12
a(I2
I5
tp13
a(I8
I5
tp14
a(I23
I7
tp15
a(I28
I5
tp16
a(I31
I8
tp17
a(I34
I8
tp18
a(I31
I5
tp19
a(I53
I12
tp20
a(I19
I14
tp21
a(I17
I2
tp22
a(I24
I14
tp23
a(I20
I9
tp24
a(I43
I14
tp25
a(I52
I2
tp26
a(I20
I4
tp27
a(I44
I9
tp28
a(I3
I2
tp29
a(I2
I6
tp30
a(I9
I14
tp31
a(I23
I10
tp32
a(I30
I14
tp33
a(I28
I10
tp34
a(I52
I8
tp35
a(I42
I8
tp36
a(I40
I10
tp37
a(I29
I11
tp38
a(I8
I6
tp39
a(I24
I11
tp40
a(I14
I2
tp41
a(I20
I14
tp42
a(I44
I3
tp43
a(I39
I14
tp44
a(I45
I2
tp45
a(I44
I14
tp46
a(I50
I2
tp47
a(I48
I13
tp48
a(I21
I14
tp49
a(I23
I9
tp50
a(I30
I11
tp51
a(I53
I4
tp52
a(I10
I14
tp53
a(I34
I3
tp54
a(I39
I2
tp55
a(I40
I7
tp56
a(I29
I14
tp57
a(I36
I2
tp58
a(I34
I14
tp59
a(I41
I6
tp60
a(I14
I8
tp61
a(I42
I5
tp62
a(I48
I5
tp63
a(I20
I3
tp64
a(I31
I11
tp65
a(I43
I8
tp66
a(I2
I11
tp67
a(I3
I11
tp68
a(I23
I3
tp69
a(I22
I9
tp70
a(I4
I12
tp71
a(I53
I10
tp72
a(I9
I4
tp73
a(I16
I14
tp74
a(I28
I8
tp75
a(I10
I3
tp76
a(I34
I4
tp77
a(I16
I7
tp78
a(I6
I14
tp79
a(I12
I2
tp80
a(I17
I6
tp81
a(I14
I5
tp82
a(I13
I3
tp83
a(I42
I6
tp84
a(I39
I7
tp85
a(I46
I13
tp86
a(I30
I2
tp87
a(I49
I3
tp88
a(I52
I13
tp89
a(I2
I2
tp90
a(I50
I8
tp91
a(I23
I6
tp92
a(I28
I6
tp93
a(I35
I14
tp94
a(I40
I14
tp95
a(I31
I2
tp96
a(I34
I9
tp97
a(I39
I3
tp98
a(I31
I4
tp99
a(I14
I6
tp100
a(I20
I10
tp101
a(I19
I2
tp102
a(I18
I6
tp103
a(I25
I14
tp104
a(I15
I7
tp105
a(I39
I10
tp106
a(I46
I14
tp107
a(I20
I5
tp108
a(I44
I10
tp109
a(I4
I11
tp110
a(I45
I11
tp111
a(I2
I7
tp112
a(I50
I13
tp113
a(I23
I5
tp114
a(I28
I11
tp115
a(I40
I11
tp116
a(I49
I7
tp117
a(I36
I14
tp118
a(I34
I10
tp119
a(I7
I4
tp120
a(I24
I12
tp121
a(I14
I3
tp122
a(I18
I11
tp123
a(I39
I9
tp124
a(I46
I11
tp125
a(I26
I14
tp126
a(I45
I14
tp127
a(I2
I8
tp128
a(I17
I3
tp129
a(I17
I8
tp130
a(I23
I8
tp131
a(I53
I3
tp132
a(I6
I2
tp133
a(I11
I14
tp134
a(I31
I3
tp135
a(I5
I14
tp136
a(I14
I9
tp137
a(I19
I11
tp138
a(I48
I6
tp139
a(I21
I9
tp140
a(I28
I2
tp141
a(I9
I3
tp142
a(I23
I2
tp143
a(I22
I14
tp144
a(I4
I13
tp145
a(I53
I9
tp146
a(I32
I10
tp147
a(I34
I5
tp148
a(I18
I14
tp149
a(I17
I5
tp150
a(I7
I14
tp151
a(I14
I10
tp152
a(I13
I2
tp153
a(I12
I14
tp154
a(I19
I6
tp155
a(I43
I5
tp156
a(I42
I7
tp157
a(I48
I3
tp158
a(I38
I10
tp159
a(I8
I3
tp160
a(I49
I2
tp161
a(I2
I3
tp162
a(I8
I7
tp163
a(I4
I2
tp164
a(I28
I7
tp165
a(I2
I14
tp166
a(I31
I10
tp167
a(I17
I9
tp168
a(I27
I14
tp169
a(I35
I2
tp170
a(I34
I6
tp171
a(I41
I14
tp172
a(I31
I7
tp173
a(I37
I11
tp174
a(I14
I7
tp175
a(I20
I11
tp176
a(I39
I5
tp177
a(I20
I6
tp178
a(I44
I11
tp179
a(I51
I13
tp180
a(I49
I13
tp181
a(I2
I4
tp182
a(I8
I4
tp183
a(I23
I4
tp184
a(I28
I4
tp185
a(I31
I9
tp186
a(I11
I2
tp187
a(I34
I11
tp188
a(I37
I14
tp189
a(I52
I12
tp190
a(I24
I13
tp191
a(I20
I8
tp192
a(I31
I14
tp193
a(I39
I8
tp194
a(I3
I14
tp195
a(I51
I8
tp196
a(I8
I14
tp197
a(I49
I8
tp198
a(I47
I13
tp199
a(I3
I3
tp200
a(I2
I9
tp201
a(I23
I11
tp202
a(I18
I2
tp203
a(I28
I9
tp204
a(I35
I11
tp205
a(I6
I3
tp206
a(I17
I10
tp207
a(I14
I14
tp208
a(I17
I14
tp209
a(I39
I6
tp210
a(I48
I7
tp211
a(I38
I14
tp212
a(I25
I11
tp213
a(I45
I3
tp214
a(I33
I14
tp215
a(I53
I11
tp216
a(I4
I14
tp217
a(I28
I3
tp218
a(I2
I10
tp219
a(I23
I14
tp220
a(I29
I2
tp221
a(I28
I14
tp222
a(I34
I2
tp223
a(I33
I10
tp224
a(I40
I6
tp225
a(I17
I4
tp226
a(I41
I7
tp227
a(I14
I11
tp228
a(I15
I14
tp229
a(I43
I4
tp230
a(I52
I3
tp231
a(I48
I4
tp232
a(I13
I14
tp233
a(I20
I2
tp234
a(I43
I9
tp235
a(I42
I14
tp236
a(I51
I2
tp237
a(I32
I14
tp238
a(I52
I9
tp239
a(I5
I2
tp240
a(I36
I11
tp241
a(I10
I2
tp242
atp243
Rp244
.