c__builtin__
set
p0
((lp1
(I14
I17
tp2
a(I19
I19
tp3
a(I15
I20
tp4
a(I20
I20
tp5
a(I36
I17
tp6
a(I38
I20
tp7
a(I37
I20
tp8
a(I39
I17
tp9
a(I14
I18
tp10
a(I30
I23
tp11
a(I24
I17
tp12
a(I41
I18
tp13
a(I38
I17
tp14
a(I37
I23
tp15
a(I29
I17
tp16
a(I15
I18
tp17
a(I14
I24
tp18
a(I24
I24
tp19
a(I20
I19
tp20
a(I25
I21
tp21
a(I21
I18
tp22
a(I17
I18
tp23
a(I38
I18
tp24
a(I32
I25
tp25
a(I29
I20
tp26
a(I14
I21
tp27
a(I24
I21
tp28
a(I29
I23
tp29
a(I34
I25
tp30
a(I15
I19
tp31
a(I14
I22
tp32
a(I19
I18
tp33
a(I35
I25
tp34
a(I24
I18
tp35
a(I20
I21
tp36
a(I36
I18
tp37
a(I25
I19
tp38
a(I38
I21
tp39
a(I37
I19
tp40
a(I38
I24
tp41
a(I15
I25
tp42
a(I14
I19
tp43
a(I30
I20
tp44
a(I19
I17
tp45
a(I25
I25
tp46
a(I37
I25
tp47
a(I41
I17
tp48
a(I38
I22
tp49
a(I37
I22
tp50
a(I14
I25
tp51
a(I24
I25
tp52
a(I30
I17
tp53
a(I36
I25
tp54
a(I25
I20
tp55
a(I40
I17
tp56
a(I21
I17
tp57
a(I17
I17
tp58
a(I23
I18
tp59
a(I38
I19
tp60
a(I29
I19
tp61
a(I24
I22
tp62
a(I30
I18
tp63
a(I20
I17
tp64
a(I26
I25
tp65
a(I25
I23
tp66
a(I16
I17
tp67
a(I15
I17
tp68
a(I23
I17
tp69
a(I27
I25
tp70
a(I29
I22
tp71
a(I24
I20
tp72
a(I14
I23
tp73
a(I30
I24
tp74
a(I19
I21
tp75
a(I24
I19
tp76
a(I25
I18
tp77
a(I22
I17
tp78
a(I37
I18
tp79
a(I18
I17
tp80
a(I38
I25
tp81
a(I29
I25
tp82
a(I15
I24
tp83
a(I30
I21
tp84
a(I25
I24
tp85
a(I15
I21
tp86
a(I37
I24
tp87
a(I22
I18
tp88
a(I38
I23
tp89
a(I37
I21
tp90
a(I18
I18
tp91
a(I28
I25
tp92
a(I34
I17
tp93
a(I15
I22
tp94
a(I30
I22
tp95
a(I35
I18
tp96
a(I40
I18
tp97
a(I33
I25
tp98
a(I29
I18
tp99
a(I34
I18
tp100
a(I24
I23
tp101
a(I31
I25
tp102
a(I30
I19
tp103
a(I20
I18
tp104
a(I35
I17
tp105
a(I25
I22
tp106
a(I16
I18
tp107
a(I29
I21
tp108
a(I14
I20
tp109
a(I30
I25
tp110
a(I19
I20
tp111
a(I15
I23
tp112
a(I25
I17
tp113
a(I37
I17
tp114
a(I39
I18
tp115
a(I29
I24
tp116
atp117
Rp118
.