c__builtin__
set
p0
((lp1
(I26
I24
tp2
a(I27
I26
tp3
a(I30
I26
tp4
a(I20
I25
tp5
a(I26
I23
tp6
a(I24
I26
tp7
a(I18
I26
tp8
a(I25
I27
tp9
a(I17
I25
tp10
a(I24
I22
tp11
a(I28
I26
tp12
a(I16
I24
tp13
a(I26
I25
tp14
a(I29
I27
tp15
a(I25
I22
tp16
a(I27
I33
tp17
a(I27
I29
tp18
a(I28
I23
tp19
a(I27
I25
tp20
a(I29
I28
tp21
a(I25
I26
tp22
a(I17
I24
tp23
a(I19
I25
tp24
a(I27
I22
tp25
a(I24
I23
tp26
a(I16
I25
tp27
a(I29
I24
tp28
a(I27
I31
tp29
a(I25
I23
tp30
a(I29
I26
tp31
a(I30
I24
tp32
a(I23
I25
tp33
a(I27
I32
tp34
a(I27
I23
tp35
a(I28
I27
tp36
a(I26
I26
tp37
a(I27
I24
tp38
a(I18
I24
tp39
a(I30
I27
tp40
a(I25
I25
tp41
a(I26
I28
tp42
a(I24
I24
tp43
a(I16
I26
tp44
a(I28
I32
tp45
a(I29
I25
tp46
a(I30
I25
tp47
a(I25
I28
tp48
a(I28
I24
tp49
a(I21
I25
tp50
a(I22
I25
tp51
a(I26
I27
tp52
a(I27
I27
tp53
a(I18
I25
tp54
a(I28
I22
tp55
a(I27
I28
tp56
a(I25
I24
tp57
a(I26
I22
tp58
a(I24
I25
tp59
a(I29
I23
tp60
a(I28
I33
tp61
a(I27
I30
tp62
a(I17
I26
tp63
a(I28
I28
tp64
a(I28
I25
tp65
atp66
Rp67
.