c__builtin__
set
p0
((lp1
(I21
I14
tp2
a(I25
I16
tp3
a(I22
I13
tp4
a(I24
I17
tp5
a(I21
I11
tp6
a(I25
I12
tp7
a(I19
I15
tp8
a(I24
I13
tp9
a(I21
I16
tp10
a(I23
I12
tp11
a(I22
I14
tp12
a(I20
I17
tp13
a(I19
I11
tp14
a(I20
I12
tp15
a(I23
I17
tp16
a(I23
I11
tp17
a(I22
I16
tp18
a(I19
I14
tp19
a(I21
I13
tp20
a(I24
I14
tp21
a(I23
I15
tp22
a(I25
I15
tp23
a(I21
I12
tp24
a(I20
I13
tp25
a(I25
I11
tp26
a(I23
I16
tp27
a(I22
I17
tp28
a(I19
I17
tp29
a(I22
I15
tp30
a(I24
I15
tp31
a(I23
I14
tp32
a(I25
I14
tp33
a(I19
I13
tp34
a(I22
I11
tp35
a(I24
I11
tp36
a(I20
I14
tp37
a(I21
I15
tp38
a(I25
I17
tp39
a(I19
I16
tp40
a(I22
I12
tp41
a(I24
I16
tp42
a(I20
I11
tp43
a(I25
I13
tp44
a(I19
I12
tp45
a(I24
I12
tp46
a(I21
I17
tp47
a(I20
I15
tp48
a(I23
I13
tp49
a(I20
I16
tp50
atp51
Rp52
.