c__builtin__
set
p0
((lp1
(I26
I14
tp2
a(I23
I15
tp3
a(I22
I13
tp4
a(I34
I21
tp5
a(I34
I11
tp6
a(I31
I26
tp7
a(I30
I22
tp8
a(I27
I17
tp9
a(I26
I11
tp10
a(I27
I11
tp11
a(I34
I25
tp12
a(I34
I15
tp13
a(I34
I22
tp14
a(I26
I13
tp15
a(I32
I26
tp16
a(I26
I15
tp17
a(I27
I20
tp18
a(I34
I18
tp19
a(I33
I26
tp20
a(I23
I11
tp21
a(I22
I14
tp22
a(I27
I16
tp23
a(I31
I22
tp24
a(I32
I16
tp25
a(I34
I12
tp26
a(I25
I15
tp27
a(I33
I11
tp28
a(I26
I12
tp29
a(I34
I26
tp30
a(I31
I11
tp31
a(I25
I11
tp32
a(I34
I19
tp33
a(I28
I16
tp34
a(I30
I20
tp35
a(I33
I16
tp36
a(I31
I25
tp37
a(I22
I15
tp38
a(I27
I19
tp39
a(I24
I15
tp40
a(I29
I11
tp41
a(I34
I23
tp42
a(I32
I11
tp43
a(I28
I20
tp44
a(I31
I24
tp45
a(I30
I16
tp46
a(I22
I11
tp47
a(I24
I11
tp48
a(I29
I16
tp49
a(I34
I16
tp50
a(I30
I21
tp51
a(I28
I11
tp52
a(I22
I12
tp53
a(I29
I20
tp54
a(I34
I20
tp55
a(I31
I16
tp56
a(I34
I13
tp57
a(I30
I11
tp58
a(I34
I24
tp59
a(I34
I14
tp60
a(I27
I18
tp61
a(I34
I17
tp62
a(I31
I23
tp63
atp64
Rp65
.