c__builtin__
set
p0
((lp1
(I10
I8
tp2
a(I10
I5
tp3
a(I10
I11
tp4
a(I10
I4
tp5
a(I10
I17
tp6
a(I10
I10
tp7
a(I10
I7
tp8
a(I10
I16
tp9
a(I10
I13
tp10
a(I10
I6
tp11
a(I10
I19
tp12
a(I10
I12
tp13
a(I10
I18
tp14
a(I10
I15
tp15
a(I10
I14
tp16
a(I10
I20
tp17
a(I10
I9
tp18
atp19
Rp20
.