c__builtin__
set
p0
((lp1
(I30
I12
tp2
a(I20
I25
tp3
a(I27
I15
tp4
a(I20
I20
tp5
a(I29
I13
tp6
a(I19
I22
tp7
a(I26
I16
tp8
a(I22
I23
tp9
a(I16
I24
tp10
a(I30
I13
tp11
a(I22
I24
tp12
a(I22
I20
tp13
a(I21
I20
tp14
a(I20
I21
tp15
a(I25
I19
tp16
a(I27
I16
tp17
a(I16
I22
tp18
a(I19
I25
tp19
a(I26
I17
tp20
a(I17
I23
tp21
a(I16
I25
tp22
a(I18
I20
tp23
a(I19
I21
tp24
a(I24
I19
tp25
a(I20
I22
tp26
a(I25
I18
tp27
a(I16
I23
tp28
a(I19
I24
tp29
a(I17
I22
tp30
a(I28
I14
tp31
a(I19
I20
tp32
a(I24
I20
tp33
a(I21
I25
tp34
a(I22
I25
tp35
a(I25
I17
tp36
a(I23
I20
tp37
a(I28
I15
tp38
a(I29
I14
tp39
a(I19
I23
tp40
atp41
Rp42
.