c__builtin__
set
p0
((lp1
(I27
I26
tp2
a(I29
I31
tp3
a(I23
I22
tp4
a(I24
I26
tp5
a(I30
I31
tp6
a(I32
I31
tp7
a(I24
I22
tp8
a(I26
I25
tp9
a(I24
I27
tp10
a(I27
I25
tp11
a(I29
I28
tp12
a(I30
I28
tp13
a(I24
I23
tp14
a(I27
I28
tp15
a(I23
I25
tp16
a(I24
I28
tp17
a(I29
I30
tp18
a(I21
I23
tp19
a(I25
I25
tp20
a(I26
I28
tp21
a(I24
I24
tp22
a(I32
I29
tp23
a(I25
I28
tp24
a(I29
I29
tp25
a(I31
I28
tp26
a(I21
I25
tp27
a(I22
I25
tp28
a(I27
I27
tp29
a(I22
I22
tp30
a(I21
I22
tp31
a(I28
I28
tp32
a(I24
I25
tp33
a(I32
I30
tp34
a(I32
I28
tp35
a(I31
I31
tp36
a(I21
I24
tp37
atp38
Rp39
.