c__builtin__
set
p0
((lp1
(I25
I16
tp2
a(I24
I16
tp3
a(I21
I21
tp4
a(I15
I20
tp5
a(I24
I17
tp6
a(I24
I13
tp7
a(I14
I17
tp8
a(I19
I15
tp9
a(I16
I21
tp10
a(I21
I16
tp11
a(I26
I16
tp12
a(I23
I12
tp13
a(I15
I19
tp14
a(I19
I18
tp15
a(I20
I12
tp16
a(I24
I18
tp17
a(I15
I17
tp18
a(I18
I16
tp19
a(I20
I21
tp20
a(I21
I19
tp21
a(I13
I16
tp22
a(I24
I14
tp23
a(I26
I17
tp24
a(I20
I18
tp25
a(I21
I12
tp26
a(I26
I18
tp27
a(I15
I15
tp28
a(I18
I14
tp29
a(I18
I13
tp30
a(I13
I15
tp31
a(I15
I18
tp32
a(I25
I18
tp33
a(I18
I12
tp34
a(I18
I15
tp35
a(I24
I12
tp36
a(I21
I20
tp37
a(I24
I15
tp38
a(I14
I15
tp39
a(I18
I17
tp40
a(I18
I21
tp41
a(I21
I18
tp42
a(I14
I16
tp43
a(I21
I15
tp44
a(I25
I17
tp45
a(I13
I17
tp46
a(I22
I12
tp47
a(I15
I21
tp48
a(I17
I21
tp49
a(I19
I12
tp50
a(I18
I18
tp51
a(I21
I17
tp52
a(I20
I15
tp53
a(I19
I21
tp54
a(I15
I16
tp55
atp56
Rp57
.