c__builtin__
set
p0
((lp1
(I30
I26
tp2
a(I20
I25
tp3
a(I24
I17
tp4
a(I26
I28
tp5
a(I22
I19
tp6
a(I27
I17
tp7
a(I18
I19
tp8
a(I19
I29
tp9
a(I30
I23
tp10
a(I26
I17
tp11
a(I22
I28
tp12
a(I18
I20
tp13
a(I23
I25
tp14
a(I29
I17
tp15
a(I30
I29
tp16
a(I25
I21
tp17
a(I26
I18
tp18
a(I22
I25
tp19
a(I28
I17
tp20
a(I18
I25
tp21
a(I24
I21
tp22
a(I26
I24
tp23
a(I22
I23
tp24
a(I21
I21
tp25
a(I27
I21
tp26
a(I26
I23
tp27
a(I22
I26
tp28
a(I18
I26
tp29
a(I30
I27
tp30
a(I20
I21
tp31
a(I26
I29
tp32
a(I23
I21
tp33
a(I30
I20
tp34
a(I19
I17
tp35
a(I25
I25
tp36
a(I22
I29
tp37
a(I18
I21
tp38
a(I29
I29
tp39
a(I24
I25
tp40
a(I30
I17
tp41
a(I21
I17
tp42
a(I26
I19
tp43
a(I18
I22
tp44
a(I28
I29
tp45
a(I30
I18
tp46
a(I20
I17
tp47
a(I26
I25
tp48
a(I22
I20
tp49
a(I26
I20
tp50
a(I23
I17
tp51
a(I22
I27
tp52
a(I27
I25
tp53
a(I18
I27
tp54
a(I30
I24
tp55
a(I19
I21
tp56
a(I25
I29
tp57
a(I26
I26
tp58
a(I22
I17
tp59
a(I18
I17
tp60
a(I18
I28
tp61
a(I29
I25
tp62
a(I24
I29
tp63
a(I30
I21
tp64
a(I21
I29
tp65
a(I22
I18
tp66
a(I18
I18
tp67
a(I28
I25
tp68
a(I30
I22
tp69
a(I20
I29
tp70
a(I27
I29
tp71
a(I18
I23
tp72
a(I30
I28
tp73
a(I19
I25
tp74
a(I30
I19
tp75
a(I22
I21
tp76
a(I26
I21
tp77
a(I22
I24
tp78
a(I18
I24
tp79
a(I23
I29
tp80
a(I29
I21
tp81
a(I30
I25
tp82
a(I21
I25
tp83
a(I26
I27
tp84
a(I25
I17
tp85
a(I22
I22
tp86
a(I26
I22
tp87
a(I28
I21
tp88
a(I18
I29
tp89
atp90
Rp91
.