c__builtin__
set
p0
((lp1
(I27
I26
tp2
a(I26
I14
tp3
a(I20
I25
tp4
a(I30
I32
tp5
a(I29
I19
tp6
a(I30
I23
tp7
a(I21
I28
tp8
a(I20
I20
tp9
a(I27
I15
tp10
a(I29
I31
tp11
a(I30
I22
tp12
a(I22
I19
tp13
a(I28
I17
tp14
a(I21
I29
tp15
a(I30
I26
tp16
a(I30
I31
tp17
a(I19
I22
tp18
a(I29
I25
tp19
a(I28
I26
tp20
a(I20
I17
tp21
a(I30
I25
tp22
a(I29
I27
tp23
a(I26
I15
tp24
a(I20
I26
tp25
a(I21
I20
tp26
a(I29
I18
tp27
a(I17
I28
tp28
a(I21
I27
tp29
a(I20
I21
tp30
a(I24
I27
tp31
a(I25
I19
tp32
a(I18
I27
tp33
a(I16
I27
tp34
a(I30
I28
tp35
a(I31
I22
tp36
a(I24
I23
tp37
a(I25
I15
tp38
a(I30
I19
tp39
a(I20
I18
tp40
a(I25
I23
tp41
a(I29
I26
tp42
a(I30
I24
tp43
a(I20
I27
tp44
a(I21
I19
tp45
a(I29
I17
tp46
a(I24
I19
tp47
a(I28
I27
tp48
a(I20
I22
tp49
a(I28
I16
tp50
a(I30
I20
tp51
a(I19
I17
tp52
a(I30
I27
tp53
a(I24
I15
tp54
a(I21
I30
tp55
a(I24
I24
tp56
a(I17
I22
tp57
a(I30
I29
tp58
a(I20
I19
tp59
a(I25
I21
tp60
a(I26
I13
tp61
a(I17
I27
tp62
a(I27
I27
tp63
a(I31
I28
tp64
a(I23
I19
tp65
a(I20
I23
tp66
a(I26
I27
tp67
a(I29
I24
tp68
a(I30
I21
tp69
a(I20
I24
tp70
a(I18
I22
tp71
a(I25
I22
tp72
a(I19
I27
tp73
a(I22
I27
tp74
a(I28
I15
tp75
a(I25
I27
tp76
a(I25
I20
tp77
a(I30
I30
tp78
a(I23
I27
tp79
a(I28
I25
tp80
atp81
Rp82
.