c__builtin__
set
p0
((lp1
(I30
I26
tp2
a(I19
I19
tp3
a(I35
I22
tp4
a(I31
I19
tp5
a(I21
I28
tp6
a(I26
I28
tp7
a(I22
I19
tp8
a(I32
I31
tp9
a(I35
I15
tp10
a(I40
I13
tp11
a(I24
I27
tp12
a(I30
I23
tp13
a(I37
I13
tp14
a(I19
I14
tp15
a(I35
I21
tp16
a(I42
I15
tp17
a(I43
I14
tp18
a(I25
I15
tp19
a(I41
I18
tp20
a(I22
I28
tp21
a(I27
I28
tp22
a(I32
I28
tp23
a(I28
I31
tp24
a(I34
I19
tp25
a(I32
I15
tp26
a(I31
I15
tp27
a(I19
I24
tp28
a(I24
I24
tp29
a(I19
I13
tp30
a(I25
I21
tp31
a(I40
I16
tp32
a(I38
I15
tp33
a(I24
I28
tp34
a(I43
I13
tp35
a(I23
I19
tp36
a(I38
I18
tp37
a(I27
I27
tp38
a(I23
I28
tp39
a(I28
I28
tp40
a(I34
I20
tp41
a(I28
I15
tp42
a(I19
I23
tp43
a(I35
I26
tp44
a(I31
I31
tp45
a(I26
I24
tp46
a(I22
I23
tp47
a(I37
I16
tp48
a(I32
I19
tp49
a(I41
I12
tp50
a(I30
I27
tp51
a(I20
I26
tp52
a(I19
I18
tp53
a(I35
I25
tp54
a(I21
I27
tp55
a(I25
I19
tp56
a(I22
I16
tp57
a(I40
I14
tp58
a(I41
I15
tp59
a(I30
I20
tp60
a(I37
I12
tp61
a(I19
I17
tp62
a(I35
I20
tp63
a(I25
I25
tp64
a(I24
I15
tp65
a(I42
I12
tp66
a(I29
I33
tp67
a(I43
I18
tp68
a(I32
I29
tp69
a(I30
I15
tp70
a(I24
I25
tp71
a(I37
I15
tp72
a(I25
I20
tp73
a(I31
I20
tp74
a(I38
I12
tp75
a(I43
I12
tp76
a(I31
I33
tp77
a(I27
I26
tp78
a(I43
I17
tp79
a(I22
I13
tp80
a(I28
I29
tp81
a(I27
I15
tp82
a(I30
I31
tp83
a(I19
I22
tp84
a(I34
I15
tp85
a(I26
I25
tp86
a(I25
I23
tp87
a(I22
I20
tp88
a(I30
I33
tp89
a(I39
I12
tp90
a(I27
I25
tp91
a(I22
I14
tp92
a(I23
I15
tp93
a(I30
I24
tp94
a(I19
I21
tp95
a(I35
I24
tp96
a(I24
I19
tp97
a(I21
I26
tp98
a(I22
I17
tp99
a(I37
I18
tp100
a(I42
I18
tp101
a(I23
I20
tp102
a(I33
I28
tp103
a(I40
I15
tp104
a(I30
I21
tp105
a(I19
I16
tp106
a(I35
I23
tp107
a(I25
I24
tp108
a(I29
I32
tp109
a(I22
I18
tp110
a(I32
I30
tp111
a(I29
I28
tp112
a(I34
I28
tp113
a(I40
I12
tp114
a(I36
I15
tp115
a(I19
I26
tp116
a(I24
I26
tp117
a(I30
I22
tp118
a(I37
I14
tp119
a(I19
I15
tp120
a(I40
I18
tp121
a(I43
I15
tp122
a(I31
I32
tp123
a(I21
I13
tp124
a(I43
I16
tp125
a(I28
I30
tp126
a(I29
I31
tp127
a(I33
I15
tp128
a(I30
I28
tp129
a(I19
I25
tp130
a(I35
I28
tp131
a(I24
I23
tp132
a(I25
I22
tp133
a(I22
I21
tp134
a(I20
I13
tp135
a(I26
I15
tp136
a(I39
I15
tp137
a(I22
I15
tp138
a(I40
I17
tp139
a(I30
I25
tp140
a(I29
I15
tp141
a(I19
I20
tp142
a(I35
I27
tp143
a(I25
I28
tp144
a(I24
I20
tp145
a(I31
I28
tp146
a(I22
I22
tp147
a(I37
I17
tp148
a(I23
I23
tp149
a(I39
I18
tp150
a(I33
I19
tp151
atp152
Rp153
.