c__builtin__
set
p0
((lp1
(I30
I26
tp2
a(I19
I19
tp3
a(I35
I22
tp4
a(I31
I19
tp5
a(I21
I28
tp6
a(I19
I13
tp7
a(I26
I28
tp8
a(I22
I19
tp9
a(I32
I31
tp10
a(I35
I15
tp11
a(I40
I13
tp12
a(I24
I27
tp13
a(I30
I23
tp14
a(I37
I13
tp15
a(I19
I14
tp16
a(I35
I21
tp17
a(I42
I15
tp18
a(I43
I14
tp19
a(I25
I15
tp20
a(I41
I18
tp21
a(I22
I28
tp22
a(I27
I28
tp23
a(I32
I28
tp24
a(I28
I31
tp25
a(I34
I19
tp26
a(I32
I15
tp27
a(I31
I15
tp28
a(I19
I24
tp29
a(I24
I24
tp30
a(I28
I32
tp31
a(I25
I21
tp32
a(I40
I16
tp33
a(I38
I15
tp34
a(I24
I28
tp35
a(I43
I13
tp36
a(I23
I19
tp37
a(I38
I18
tp38
a(I27
I27
tp39
a(I23
I28
tp40
a(I28
I28
tp41
a(I34
I20
tp42
a(I28
I15
tp43
a(I19
I23
tp44
a(I35
I26
tp45
a(I31
I31
tp46
a(I26
I24
tp47
a(I22
I23
tp48
a(I37
I16
tp49
a(I32
I19
tp50
a(I41
I12
tp51
a(I30
I27
tp52
a(I20
I26
tp53
a(I19
I18
tp54
a(I35
I25
tp55
a(I21
I27
tp56
a(I25
I19
tp57
a(I22
I16
tp58
a(I40
I14
tp59
a(I41
I15
tp60
a(I30
I20
tp61
a(I37
I12
tp62
a(I19
I17
tp63
a(I35
I20
tp64
a(I25
I25
tp65
a(I24
I15
tp66
a(I42
I12
tp67
a(I29
I33
tp68
a(I43
I18
tp69
a(I32
I29
tp70
a(I30
I15
tp71
a(I24
I25
tp72
a(I37
I15
tp73
a(I28
I33
tp74
a(I25
I20
tp75
a(I31
I20
tp76
a(I38
I12
tp77
a(I43
I12
tp78
a(I31
I33
tp79
a(I27
I26
tp80
a(I43
I17
tp81
a(I22
I13
tp82
a(I28
I29
tp83
a(I27
I15
tp84
a(I19
I22
tp85
a(I34
I15
tp86
a(I26
I25
tp87
a(I25
I23
tp88
a(I22
I20
tp89
a(I30
I33
tp90
a(I39
I12
tp91
a(I27
I25
tp92
a(I22
I14
tp93
a(I23
I15
tp94
a(I30
I24
tp95
a(I19
I21
tp96
a(I35
I24
tp97
a(I24
I19
tp98
a(I21
I26
tp99
a(I22
I17
tp100
a(I37
I18
tp101
a(I42
I18
tp102
a(I23
I20
tp103
a(I33
I28
tp104
a(I40
I15
tp105
a(I30
I21
tp106
a(I19
I16
tp107
a(I35
I23
tp108
a(I25
I24
tp109
a(I22
I18
tp110
a(I32
I30
tp111
a(I29
I28
tp112
a(I34
I28
tp113
a(I40
I12
tp114
a(I36
I15
tp115
a(I19
I26
tp116
a(I24
I26
tp117
a(I30
I22
tp118
a(I37
I14
tp119
a(I19
I15
tp120
a(I40
I18
tp121
a(I43
I15
tp122
a(I31
I32
tp123
a(I21
I13
tp124
a(I43
I16
tp125
a(I28
I30
tp126
a(I33
I15
tp127
a(I30
I28
tp128
a(I19
I25
tp129
a(I35
I28
tp130
a(I24
I23
tp131
a(I25
I22
tp132
a(I22
I21
tp133
a(I20
I13
tp134
a(I26
I15
tp135
a(I39
I15
tp136
a(I22
I15
tp137
a(I40
I17
tp138
a(I30
I25
tp139
a(I29
I15
tp140
a(I19
I20
tp141
a(I35
I27
tp142
a(I25
I28
tp143
a(I24
I20
tp144
a(I31
I28
tp145
a(I22
I22
tp146
a(I37
I17
tp147
a(I23
I23
tp148
a(I39
I18
tp149
a(I33
I19
tp150
atp151
Rp152
.