c__builtin__
set
p0
((lp1
(I24
I30
tp2
a(I19
I19
tp3
a(I25
I31
tp4
a(I21
I28
tp5
a(I26
I28
tp6
a(I32
I31
tp7
a(I26
I32
tp8
a(I23
I35
tp9
a(I23
I26
tp10
a(I22
I28
tp11
a(I27
I28
tp12
a(I23
I25
tp13
a(I25
I38
tp14
a(I20
I32
tp15
a(I24
I24
tp16
a(I28
I32
tp17
a(I25
I21
tp18
a(I22
I25
tp19
a(I27
I27
tp20
a(I23
I28
tp21
a(I24
I36
tp22
a(I27
I34
tp23
a(I31
I31
tp24
a(I21
I24
tp25
a(I26
I24
tp26
a(I30
I32
tp27
a(I22
I26
tp28
a(I24
I31
tp29
a(I19
I18
tp30
a(I27
I33
tp31
a(I25
I30
tp32
a(I20
I21
tp33
a(I22
I16
tp34
a(I24
I28
tp35
a(I21
I33
tp36
a(I19
I17
tp37
a(I23
I34
tp38
a(I32
I30
tp39
a(I23
I24
tp40
a(I18
I32
tp41
a(I25
I37
tp42
a(I20
I33
tp43
a(I22
I32
tp44
a(I28
I33
tp45
a(I25
I20
tp46
a(I23
I33
tp47
a(I21
I17
tp48
a(I27
I26
tp49
a(I33
I27
tp50
a(I25
I32
tp51
a(I30
I31
tp52
a(I22
I33
tp53
a(I20
I17
tp54
a(I25
I23
tp55
a(I23
I36
tp56
a(I27
I20
tp57
a(I26
I20
tp58
a(I22
I27
tp59
a(I32
I29
tp60
a(I27
I25
tp61
a(I19
I32
tp62
a(I19
I21
tp63
a(I27
I32
tp64
a(I25
I29
tp65
a(I20
I22
tp66
a(I22
I17
tp67
a(I21
I23
tp68
a(I28
I20
tp69
a(I33
I28
tp70
a(I24
I29
tp71
a(I21
I32
tp72
a(I25
I24
tp73
a(I29
I32
tp74
a(I23
I27
tp75
a(I32
I28
tp76
a(I25
I36
tp77
a(I23
I32
tp78
a(I21
I16
tp79
a(I28
I19
tp80
a(I27
I36
tp81
a(I26
I36
tp82
a(I25
I22
tp83
a(I22
I24
tp84
a(I27
I24
tp85
a(I19
I20
tp86
a(I27
I35
tp87
a(I25
I28
tp88
a(I31
I28
tp89
a(I21
I22
tp90
a(I24
I32
tp91
atp92
Rp93
.