c__builtin__
set
p0
((lp1
(I13
I22
tp2
a(I24
I17
tp3
a(I22
I19
tp4
a(I27
I17
tp5
a(I18
I19
tp6
a(I9
I21
tp7
a(I11
I22
tp8
a(I15
I20
tp9
a(I12
I17
tp10
a(I18
I20
tp11
a(I9
I14
tp12
a(I10
I13
tp13
a(I9
I16
tp14
a(I17
I13
tp15
a(I21
I18
tp16
a(I12
I22
tp17
a(I23
I19
tp18
a(I21
I15
tp19
a(I17
I14
tp20
a(I10
I14
tp21
a(I9
I19
tp22
a(I16
I13
tp23
a(I15
I13
tp24
a(I13
I13
tp25
a(I27
I21
tp26
a(I18
I15
tp27
a(I23
I22
tp28
a(I15
I19
tp29
a(I14
I22
tp30
a(I24
I18
tp31
a(I12
I13
tp32
a(I22
I16
tp33
a(I13
I16
tp34
a(I27
I16
tp35
a(I18
I16
tp36
a(I9
I20
tp37
a(I14
I19
tp38
a(I12
I18
tp39
a(I13
I19
tp40
a(I26
I13
tp41
a(I15
I16
tp42
a(I21
I17
tp43
a(I21
I14
tp44
a(I26
I14
tp45
a(I22
I13
tp46
a(I27
I15
tp47
a(I19
I22
tp48
a(I9
I18
tp49
a(I24
I22
tp50
a(I18
I21
tp51
a(I27
I20
tp52
a(I19
I21
tp53
a(I15
I22
tp54
a(I20
I22
tp55
a(I27
I19
tp56
a(I18
I17
tp57
a(I14
I16
tp58
a(I15
I21
tp59
a(I12
I19
tp60
a(I25
I13
tp61
a(I18
I18
tp62
a(I11
I13
tp63
a(I26
I22
tp64
a(I24
I19
tp65
a(I14
I13
tp66
a(I10
I21
tp67
a(I24
I13
tp68
a(I21
I16
tp69
a(I12
I16
tp70
a(I21
I13
tp71
a(I27
I14
tp72
a(I9
I15
tp73
a(I9
I17
tp74
a(I15
I18
tp75
a(I10
I22
tp76
a(I25
I22
tp77
a(I21
I19
tp78
a(I26
I21
tp79
a(I23
I16
tp80
a(I24
I16
tp81
a(I15
I17
tp82
a(I22
I22
tp83
a(I21
I22
tp84
a(I27
I18
tp85
a(I18
I14
tp86
a(I23
I13
tp87
atp88
Rp89
.