c__builtin__
set
p0
((lp1
(I15
I27
tp2
a(I19
I19
tp3
a(I15
I20
tp4
a(I20
I20
tp5
a(I18
I19
tp6
a(I24
I27
tp7
a(I12
I17
tp8
a(I26
I17
tp9
a(I18
I20
tp10
a(I19
I24
tp11
a(I20
I19
tp12
a(I19
I13
tp13
a(I17
I13
tp14
a(I12
I22
tp15
a(I26
I18
tp16
a(I23
I19
tp17
a(I16
I13
tp18
a(I21
I24
tp19
a(I20
I16
tp20
a(I26
I24
tp21
a(I15
I13
tp22
a(I13
I13
tp23
a(I12
I27
tp24
a(I26
I23
tp25
a(I23
I22
tp26
a(I18
I13
tp27
a(I19
I18
tp28
a(I15
I23
tp29
a(I21
I27
tp30
a(I20
I21
tp31
a(I22
I16
tp32
a(I12
I24
tp33
a(I18
I16
tp34
a(I17
I24
tp35
a(I23
I21
tp36
a(I19
I17
tp37
a(I12
I18
tp38
a(I26
I13
tp39
a(I17
I27
tp40
a(I23
I24
tp41
a(I15
I16
tp42
a(I19
I27
tp43
a(I25
I20
tp44
a(I12
I23
tp45
a(I26
I19
tp46
a(I23
I18
tp47
a(I26
I14
tp48
a(I22
I13
tp49
a(I16
I16
tp50
a(I15
I19
tp51
a(I18
I21
tp52
a(I26
I25
tp53
a(I12
I20
tp54
a(I26
I20
tp55
a(I23
I17
tp56
a(I22
I27
tp57
a(I18
I27
tp58
a(I15
I17
tp59
a(I20
I27
tp60
a(I19
I21
tp61
a(I15
I22
tp62
a(I12
I14
tp63
a(I26
I26
tp64
a(I12
I25
tp65
a(I23
I20
tp66
a(I26
I27
tp67
a(I15
I24
tp68
a(I20
I24
tp69
a(I19
I16
tp70
a(I15
I21
tp71
a(I12
I19
tp72
a(I25
I13
tp73
a(I16
I27
tp74
a(I23
I27
tp75
a(I14
I13
tp76
a(I25
I27
tp77
a(I24
I13
tp78
a(I21
I16
tp79
a(I12
I16
tp80
a(I26
I16
tp81
a(I17
I16
tp82
a(I16
I24
tp83
a(I21
I13
tp84
a(I26
I15
tp85
a(I14
I27
tp86
a(I15
I18
tp87
a(I12
I21
tp88
a(I26
I21
tp89
a(I23
I16
tp90
a(I22
I24
tp91
a(I18
I24
tp92
a(I19
I20
tp93
a(I24
I20
tp94
a(I12
I15
tp95
a(I20
I13
tp96
a(I12
I26
tp97
a(I26
I22
tp98
a(I23
I23
tp99
a(I13
I27
tp100
a(I12
I13
tp101
a(I23
I13
tp102
atp103
Rp104
.