c__builtin__
set
p0
((lp1
(I20
I25
tp2
a(I33
I28
tp3
a(I30
I41
tp4
a(I28
I41
tp5
a(I22
I19
tp6
a(I35
I41
tp7
a(I18
I19
tp8
a(I33
I41
tp9
a(I36
I34
tp10
a(I37
I35
tp11
a(I38
I40
tp12
a(I35
I21
tp13
a(I29
I17
tp14
a(I20
I32
tp15
a(I40
I29
tp16
a(I21
I37
tp17
a(I31
I21
tp18
a(I29
I37
tp19
a(I42
I31
tp20
a(I23
I19
tp21
a(I36
I41
tp22
a(I34
I41
tp23
a(I32
I25
tp24
a(I18
I36
tp25
a(I38
I35
tp26
a(I24
I21
tp27
a(I42
I20
tp28
a(I36
I29
tp29
a(I26
I23
tp30
a(I38
I31
tp31
a(I24
I33
tp32
a(I30
I27
tp33
a(I20
I21
tp34
a(I34
I32
tp35
a(I30
I20
tp36
a(I18
I31
tp37
a(I42
I32
tp38
a(I34
I26
tp39
a(I25
I25
tp40
a(I37
I25
tp41
a(I26
I30
tp42
a(I38
I22
tp43
a(I29
I29
tp44
a(I25
I37
tp45
a(I26
I34
tp46
a(I22
I36
tp47
a(I23
I33
tp48
a(I40
I17
tp49
a(I21
I17
tp50
a(I22
I30
tp51
a(I35
I34
tp52
a(I18
I22
tp53
a(I36
I37
tp54
a(I34
I21
tp55
a(I26
I25
tp56
a(I19
I32
tp57
a(I41
I21
tp58
a(I22
I17
tp59
a(I18
I17
tp60
a(I42
I18
tp61
a(I23
I20
tp62
a(I22
I37
tp63
a(I37
I33
tp64
a(I37
I21
tp65
a(I38
I26
tp66
a(I19
I41
tp67
a(I30
I22
tp68
a(I32
I37
tp69
a(I22
I40
tp70
a(I42
I29
tp71
a(I40
I37
tp72
a(I34
I39
tp73
a(I32
I27
tp74
a(I18
I34
tp75
a(I42
I39
tp76
a(I38
I33
tp77
a(I35
I37
tp78
a(I26
I21
tp79
a(I38
I29
tp80
a(I33
I21
tp81
a(I20
I41
tp82
a(I30
I25
tp83
a(I31
I28
tp84
a(I30
I35
tp85
a(I34
I18
tp86
a(I41
I41
tp87
a(I33
I26
tp88
a(I18
I29
tp89
a(I34
I24
tp90
a(I26
I28
tp91
a(I38
I20
tp92
a(I27
I17
tp93
a(I39
I17
tp94
a(I19
I29
tp95
a(I26
I32
tp96
a(I20
I30
tp97
a(I40
I19
tp98
a(I21
I31
tp99
a(I41
I18
tp100
a(I22
I28
tp101
a(I35
I36
tp102
a(I18
I20
tp103
a(I42
I41
tp104
a(I23
I25
tp105
a(I36
I39
tp106
a(I34
I19
tp107
a(I37
I38
tp108
a(I28
I17
tp109
a(I20
I37
tp110
a(I28
I37
tp111
a(I22
I23
tp112
a(I18
I41
tp113
a(I39
I41
tp114
a(I35
I25
tp115
a(I24
I18
tp116
a(I25
I19
tp117
a(I38
I24
tp118
a(I39
I29
tp119
a(I21
I33
tp120
a(I19
I17
tp121
a(I31
I17
tp122
a(I29
I33
tp123
a(I42
I27
tp124
a(I34
I37
tp125
a(I32
I29
tp126
a(I37
I40
tp127
a(I18
I32
tp128
a(I42
I37
tp129
a(I38
I39
tp130
a(I34
I31
tp131
a(I24
I25
tp132
a(I36
I25
tp133
a(I25
I20
tp134
a(I26
I19
tp135
a(I38
I19
tp136
a(I28
I29
tp137
a(I24
I37
tp138
a(I30
I31
tp139
a(I26
I39
tp140
a(I22
I33
tp141
a(I20
I17
tp142
a(I30
I33
tp143
a(I22
I27
tp144
a(I35
I33
tp145
a(I18
I27
tp146
a(I33
I17
tp147
a(I34
I22
tp148
a(I25
I29
tp149
a(I26
I26
tp150
a(I39
I19
tp151
a(I29
I25
tp152
a(I25
I41
tp153
a(I19
I31
tp154
a(I22
I22
tp155
a(I40
I21
tp156
a(I21
I29
tp157
a(I22
I18
tp158
a(I31
I25
tp159
a(I35
I38
tp160
a(I18
I18
tp161
a(I42
I23
tp162
a(I36
I33
tp163
a(I34
I17
tp164
a(I37
I36
tp165
a(I36
I21
tp166
a(I26
I41
tp167
a(I30
I19
tp168
a(I41
I25
tp169
a(I22
I21
tp170
a(I42
I30
tp171
a(I36
I40
tp172
a(I34
I40
tp173
a(I18
I39
tp174
a(I38
I34
tp175
a(I24
I20
tp176
a(I25
I17
tp177
a(I37
I17
tp178
a(I26
I22
tp179
a(I38
I30
tp180
a(I30
I26
tp181
a(I42
I25
tp182
a(I23
I41
tp183
a(I40
I41
tp184
a(I34
I35
tp185
a(I18
I30
tp186
a(I42
I35
tp187
a(I38
I37
tp188
a(I34
I29
tp189
a(I26
I17
tp190
a(I38
I17
tp191
a(I39
I20
tp192
a(I30
I29
tp193
a(I26
I37
tp194
a(I22
I39
tp195
a(I22
I35
tp196
a(I33
I29
tp197
a(I30
I39
tp198
a(I22
I25
tp199
a(I35
I35
tp200
a(I18
I25
tp201
a(I36
I36
tp202
a(I34
I20
tp203
a(I26
I24
tp204
a(I27
I21
tp205
a(I30
I40
tp206
a(I19
I33
tp207
a(I27
I33
tp208
a(I42
I24
tp209
a(I35
I40
tp210
a(I42
I21
tp211
a(I23
I21
tp212
a(I21
I32
tp213
a(I36
I35
tp214
a(I37
I34
tp215
a(I38
I41
tp216
a(I20
I33
tp217
a(I30
I17
tp218
a(I28
I33
tp219
a(I33
I33
tp220
a(I23
I18
tp221
a(I34
I38
tp222
a(I32
I26
tp223
a(I18
I37
tp224
a(I42
I38
tp225
a(I38
I32
tp226
a(I39
I37
tp227
a(I35
I29
tp228
a(I26
I20
tp229
a(I38
I28
tp230
a(I27
I25
tp231
a(I39
I25
tp232
a(I30
I24
tp233
a(I19
I21
tp234
a(I31
I29
tp235
a(I30
I34
tp236
a(I34
I33
tp237
a(I32
I17
tp238
a(I32
I41
tp239
a(I18
I28
tp240
a(I42
I33
tp241
a(I34
I27
tp242
a(I24
I29
tp243
a(I26
I31
tp244
a(I38
I23
tp245
a(I28
I25
tp246
a(I24
I41
tp247
a(I26
I35
tp248
a(I31
I26
tp249
a(I20
I29
tp250
a(I40
I18
tp251
a(I30
I37
tp252
a(I41
I19
tp253
a(I22
I31
tp254
a(I33
I25
tp255
a(I18
I23
tp256
a(I42
I40
tp257
a(I36
I38
tp258
a(I31
I27
tp259
a(I37
I39
tp260
a(I35
I17
tp261
a(I29
I21
tp262
a(I30
I36
tp263
a(I40
I25
tp264
a(I21
I25
tp265
a(I41
I20
tp266
a(I31
I41
tp267
a(I29
I41
tp268
a(I42
I19
tp269
a(I42
I28
tp270
a(I18
I40
tp271
a(I31
I33
tp272
a(I24
I17
tp273
a(I36
I17
tp274
a(I38
I27
tp275
a(I41
I33
tp276
a(I21
I41
tp277
a(I30
I23
tp278
a(I41
I29
tp279
a(I22
I41
tp280
a(I42
I26
tp281
a(I34
I36
tp282
a(I32
I28
tp283
a(I37
I41
tp284
a(I33
I27
tp285
a(I18
I35
tp286
a(I42
I36
tp287
a(I38
I38
tp288
a(I34
I30
tp289
a(I25
I21
tp290
a(I37
I29
tp291
a(I26
I18
tp292
a(I38
I18
tp293
a(I25
I33
tp294
a(I30
I30
tp295
a(I26
I38
tp296
a(I22
I32
tp297
a(I23
I37
tp298
a(I30
I32
tp299
a(I22
I26
tp300
a(I18
I26
tp301
a(I34
I25
tp302
a(I26
I29
tp303
a(I38
I21
tp304
a(I26
I33
tp305
a(I20
I31
tp306
a(I40
I20
tp307
a(I21
I30
tp308
a(I41
I17
tp309
a(I22
I29
tp310
a(I35
I39
tp311
a(I18
I21
tp312
a(I42
I22
tp313
a(I37
I37
tp314
a(I19
I37
tp315
a(I26
I40
tp316
a(I27
I37
tp317
a(I30
I18
tp318
a(I21
I21
tp319
a(I32
I33
tp320
a(I22
I20
tp321
a(I42
I17
tp322
a(I23
I17
tp323
a(I40
I33
tp324
a(I18
I38
tp325
a(I24
I19
tp326
a(I31
I37
tp327
a(I25
I18
tp328
a(I38
I25
tp329
a(I30
I21
tp330
a(I33
I37
tp331
a(I34
I34
tp332
a(I41
I37
tp333
a(I18
I33
tp334
a(I42
I34
tp335
a(I38
I36
tp336
a(I34
I28
tp337
a(I39
I33
tp338
a(I22
I34
tp339
a(I27
I29
tp340
a(I39
I21
tp341
a(I30
I28
tp342
a(I19
I25
tp343
a(I26
I36
tp344
a(I22
I38
tp345
a(I27
I41
tp346
a(I30
I38
tp347
a(I32
I21
tp348
a(I22
I24
tp349
a(I18
I24
tp350
a(I23
I29
tp351
a(I34
I23
tp352
a(I26
I27
tp353
a(I39
I18
tp354
a(I28
I21
tp355
a(I19
I30
tp356
atp357
Rp358
.